; Function Attrs: nounwind uwtable
define internal i32 @linebuffer_read(ptr noundef %0, ptr noundef %1, i32 noundef %2) #2 {
  %4 = icmp eq ptr %1, null
  br i1 %4, label %11, label %5

5:                                                ; preds = %3
  %6 = getelementptr inbounds nuw i8, ptr %0, i64 72
  %7 = load ptr, ptr %6, align 8, !tbaa !17
  %8 = icmp eq ptr %7, null
  br i1 %8, label %11, label %9

9:                                                ; preds = %5
  %10 = tail call i32 @BIO_read(ptr noundef nonnull %7, ptr noundef nonnull %1, i32 noundef %2) #5
  tail call void @BIO_clear_flags(ptr noundef nonnull %0, i32 noundef 15) #5
  tail call void @BIO_copy_next_retry(ptr noundef nonnull %0) #5
  br label %11

11:                                               ; preds = %5, %3, %9
  %.0 = phi i32 [ %10, %9 ], [ 0, %3 ], [ 0, %5 ]
  ret i32 %.0
}